; Function Attrs: mustprogress nofree norecurse nosync nounwind willreturn memory(argmem: readwrite) uwtable
define void @PHP_CRC32LEFinal(ptr nocapture noundef writeonly %0, ptr nocapture noundef %1) #3 {
  %3 = load i32, ptr %1, align 4
  %4 = xor i32 %3, -1
  store i32 %4, ptr %1, align 4
  %5 = lshr i32 %4, 24
  %6 = trunc i32 %5 to i8
  %7 = getelementptr inbounds i8, ptr %0, i64 3
  store i8 %6, ptr %7, align 1
  %8 = load i32, ptr %1, align 4
  %9 = lshr i32 %8, 16
  %10 = trunc i32 %9 to i8
  %11 = getelementptr inbounds i8, ptr %0, i64 2
  store i8 %10, ptr %11, align 1
  %12 = load i32, ptr %1, align 4
  %13 = lshr i32 %12, 8
  %14 = trunc i32 %13 to i8
  %15 = getelementptr inbounds i8, ptr %0, i64 1
  store i8 %14, ptr %15, align 1
  %16 = load i32, ptr %1, align 4
  %17 = trunc i32 %16 to i8
  store i8 %17, ptr %0, align 1
  store i32 0, ptr %1, align 4
  ret void
}